Certificate:
    Data:
        Version: 3 (0x2)
        Serial Number: 1 (0x1)
        Signature Algorithm: ecdsa-with-SHA256
        Issuer: C=JP, ST=Tokyo, CN=Test CA
        Validity
            Not Before: Dec 24 07:32:30 2021 GMT
            Not After : Dec 24 07:32:30 2022 GMT
        Subject: C=JP, ST=Tokyo, CN=invalid-user
        Subject Public Key Info:
            Public Key Algorithm: id-ecPublicKey
                Public-Key: (256 bit)
                pub:
                    04:0f:d5:fc:62:72:c1:b6:c4:71:48:41:f2:98:a7:
                    d9:3e:6c:47:0e:db:47:a6:a7:60:b6:07:22:07:c3:
                    7e:be:80:a1:71:26:79:1c:c8:1b:16:83:38:81:a3:
                    33:0e:ac:eb:9b:c6:66:e6:a7:59:17:a4:24:4a:95:
                    da:1b:75:5a:41
                ASN1 OID: prime256v1
                NIST CURVE: P-256
        X509v3 extensions:
            X509v3 Basic Constraints: 
                CA:FALSE
            Netscape Comment: 
                OpenSSL Generated Certificate
            X509v3 Subject Key Identifier: 
                AD:B5:3D:64:F3:D3:CF:B5:49:61:97:8A:65:2D:C0:E2:A2:9D:B7:DA
            X509v3 Authority Key Identifier: 
                C2:9B:17:82:58:EC:C7:2D:F4:B7:59:25:48:D8:83:4B:8D:F2:95:30
            X509v3 Extended Key Usage: 
                TLS Web Client Authentication
    Signature Algorithm: ecdsa-with-SHA256
    Signature Value:
        30:45:02:21:00:e4:13:a7:79:47:c3:d4:df:00:1c:e0:45:e3:
        c5:07:62:d6:f7:6a:a4:6b:2a:1d:05:63:03:99:ff:a0:3a:f6:
        37:02:20:0b:cd:4a:b3:13:f1:e5:ec:51:93:6b:89:6a:9c:e5:
        89:94:07:a4:3a:01:4d:94:f7:a8:07:02:c9:50:70:35:31
-----BEGIN CERTIFICATE-----
MIIB5DCCAYqgAwIBAgIBATAKBggqhkjOPQQDAjAvMQswCQYDVQQGEwJKUDEOMAwG
A1UECAwFVG9reW8xEDAOBgNVBAMMB1Rlc3QgQ0EwHhcNMjExMjI0MDczMjMwWhcN
MjIxMjI0MDczMjMwWjA0MQswCQYDVQQGEwJKUDEOMAwGA1UECAwFVG9reW8xFTAT
BgNVBAMMDGludmFsaWQtdXNlcjBZMBMGByqGSM49AgEGCCqGSM49AwEHA0IABA/V
/GJywbbEcUhB8pin2T5sRw7bR6anYLYHIgfDfr6AoXEmeRzIGxaDOIGjMw6s65vG
ZuanWRekJEqV2ht1WkGjgZEwgY4wCQYDVR0TBAIwADAsBglghkgBhvhCAQ0EHxYd
T3BlblNTTCBHZW5lcmF0ZWQgQ2VydGlmaWNhdGUwHQYDVR0OBBYEFK21PWTz08+1
SWGXimUtwOKinbfaMB8GA1UdIwQYMBaAFMKbF4JY7Mct9LdZJUjYg0uN8pUwMBMG
A1UdJQQMMAoGCCsGAQUFBwMCMAoGCCqGSM49BAMCA0gAMEUCIQDkE6d5R8PU3wAc
4EXjxQdi1vdqpGsqHQVjA5n/oDr2NwIgC81KsxPx5exRk2uJapzliZQHpDoBTZT3
qAcCyVBwNTE=
-----END CERTIFICATE-----
