Certificate:
    Data:
        Version: 3 (0x2)
        Serial Number: 0 (0x0)
        Signature Algorithm: ecdsa-with-SHA256
        Issuer: C=JP, ST=Tokyo, CN=Test Client CA
        Validity
            Not Before: Dec 24 07:23:26 2021 GMT
            Not After : Dec 24 07:23:26 2022 GMT
        Subject: C=JP, ST=Tokyo, CN=test-user
        Subject Public Key Info:
            Public Key Algorithm: id-ecPublicKey
                Public-Key: (256 bit)
                pub:
                    04:f0:60:55:7b:52:de:26:12:c8:de:00:9a:25:03:
                    fc:18:36:66:4a:ee:3b:70:34:b0:6f:94:48:a8:da:
                    1d:64:bd:6f:06:43:2f:a5:b2:f2:47:b5:a0:4a:22:
                    3d:e4:57:8b:f0:1a:22:03:40:79:02:c7:96:57:41:
                    ee:3a:2e:64:e6
                ASN1 OID: prime256v1
                NIST CURVE: P-256
        X509v3 extensions:
            X509v3 Basic Constraints: 
                CA:FALSE
            Netscape Comment: 
                OpenSSL Generated Certificate
            X509v3 Subject Key Identifier: 
                F8:62:F4:92:71:DE:A1:E1:3F:78:F1:12:93:41:55:B0:E2:84:DC:DA
            X509v3 Authority Key Identifier: 
                AB:E0:79:61:3B:EA:5A:2F:13:FC:5D:0C:4D:9B:08:8E:6F:B3:3D:BE
            X509v3 Extended Key Usage: 
                TLS Web Client Authentication
    Signature Algorithm: ecdsa-with-SHA256
    Signature Value:
        30:45:02:20:3f:4a:4b:01:f0:d8:db:bc:85:a9:55:4b:d5:60:
        3d:78:b2:a8:c3:67:c7:b0:b0:a2:63:64:c3:1c:b1:13:87:aa:
        02:21:00:8c:42:82:99:56:72:95:64:da:7b:da:fa:ed:57:e6:
        e9:96:f5:77:0c:3b:8c:81:9f:75:20:9f:b9:fb:68:7e:fe
-----BEGIN CERTIFICATE-----
MIIB6DCCAY6gAwIBAgIBADAKBggqhkjOPQQDAjA2MQswCQYDVQQGEwJKUDEOMAwG
A1UECAwFVG9reW8xFzAVBgNVBAMMDlRlc3QgQ2xpZW50IENBMB4XDTIxMTIyNDA3
MjMyNloXDTIyMTIyNDA3MjMyNlowMTELMAkGA1UEBhMCSlAxDjAMBgNVBAgMBVRv
a3lvMRIwEAYDVQQDDAl0ZXN0LXVzZXIwWTATBgcqhkjOPQIBBggqhkjOPQMBBwNC
AATwYFV7Ut4mEsjeAJolA/wYNmZK7jtwNLBvlEio2h1kvW8GQy+lsvJHtaBKIj3k
V4vwGiIDQHkCx5ZXQe46LmTmo4GRMIGOMAkGA1UdEwQCMAAwLAYJYIZIAYb4QgEN
BB8WHU9wZW5TU0wgR2VuZXJhdGVkIENlcnRpZmljYXRlMB0GA1UdDgQWBBT4YvSS
cd6h4T948RKTQVWw4oTc2jAfBgNVHSMEGDAWgBSr4HlhO+paLxP8XQxNmwiOb7M9
vjATBgNVHSUEDDAKBggrBgEFBQcDAjAKBggqhkjOPQQDAgNIADBFAiA/SksB8Njb
vIWpVUvVYD14sqjDZ8ewsKJjZMMcsROHqgIhAIxCgplWcpVk2nva+u1X5umW9XcM
O4yBn3Ugn7n7aH7+
-----END CERTIFICATE-----
